target datalayout = "e-m:e-p270:32:32-p271:32:32-p272:64:64-i64:64-i128:128-f80:128-n8:16:32:64-S128"
target triple = "x86_64-pc-linux-gnu"

%struct.PJconsts = type { ptr, ptr, ptr, ptr, ptr, ptr, ptr, ptr, ptr, ptr, ptr, ptr, i32, ptr, ptr, ptr, ptr, ptr, ptr, ptr, ptr, double, double, double, double, double, double, double, double, double, double, double, double, double, double, double, double, double, double, double, double, double, double, i32, i32, i32, i32, i32, i32, i32, i32, i32, i32, i32, ptr, ptr, ptr, ptr, ptr, ptr, double, double, double, double, double, double, double, double, double, double, double, i32, [7 x double], i32, ptr, ptr, double, double, i32, [4 x i8], %"class.std::shared_ptr", i8, double, i8, %"class.std::__cxx11::basic_string", %"class.std::__cxx11::basic_string", %"class.std::__cxx11::basic_string", i8, %"class.std::vector", i32, %"class.std::vector.3", i32, i8, i8, i8, ptr }
%"class.std::shared_ptr" = type { %"class.std::__shared_ptr" }
%"class.std::__shared_ptr" = type { ptr, %"class.std::__shared_count" }
%"class.std::__shared_count" = type { ptr }
%"class.std::__cxx11::basic_string" = type { %"struct.std::__cxx11::basic_string<char>::_Alloc_hider", i64, %union.anon }
%"struct.std::__cxx11::basic_string<char>::_Alloc_hider" = type { ptr }
%union.anon = type { i64, [8 x i8] }
%"class.std::vector" = type { %"struct.std::_Vector_base" }
%"struct.std::_Vector_base" = type { %"struct.std::_Vector_base<osgeo::proj::operation::GridDescription, std::allocator<osgeo::proj::operation::GridDescription>>::_Vector_impl" }
%"struct.std::_Vector_base<osgeo::proj::operation::GridDescription, std::allocator<osgeo::proj::operation::GridDescription>>::_Vector_impl" = type { %"struct.std::_Vector_base<osgeo::proj::operation::GridDescription, std::allocator<osgeo::proj::operation::GridDescription>>::_Vector_impl_data" }
%"struct.std::_Vector_base<osgeo::proj::operation::GridDescription, std::allocator<osgeo::proj::operation::GridDescription>>::_Vector_impl_data" = type { ptr, ptr, ptr }
%"class.std::vector.3" = type { %"struct.std::_Vector_base.4" }
%"struct.std::_Vector_base.4" = type { %"struct.std::_Vector_base<PJCoordOperation, std::allocator<PJCoordOperation>>::_Vector_impl" }
%"struct.std::_Vector_base<PJCoordOperation, std::allocator<PJCoordOperation>>::_Vector_impl" = type { %"struct.std::_Vector_base<PJCoordOperation, std::allocator<PJCoordOperation>>::_Vector_impl_data" }
%"struct.std::_Vector_base<PJCoordOperation, std::allocator<PJCoordOperation>>::_Vector_impl_data" = type { ptr, ptr, ptr }
%struct.PJ_XYZ = type { double, double, double }
%struct.PJ_LPZ = type { double, double, double }

; Function Attrs: mustprogress nounwind uwtable
define internal noundef double @_ZL26normal_radius_of_curvatureddd(double noundef %0, double noundef %1, double noundef %2) #1 {
  %4 = alloca double, align 8
  %5 = alloca double, align 8
  %6 = alloca double, align 8
  %7 = alloca double, align 8
  store double %0, ptr %5, align 8, !tbaa !48
  store double %1, ptr %6, align 8, !tbaa !48
  store double %2, ptr %7, align 8, !tbaa !48
  %8 = load double, ptr %6, align 8, !tbaa !48
  %9 = fcmp oeq double %8, 0.000000e+00
  br i1 %9, label %10, label %12

10:                                               ; preds = %3
  %11 = load double, ptr %5, align 8, !tbaa !48
  store double %11, ptr %4, align 8
  br label %22

12:                                               ; preds = %3
  %13 = load double, ptr %5, align 8, !tbaa !48
  %14 = load double, ptr %6, align 8, !tbaa !48
  %15 = load double, ptr %7, align 8, !tbaa !48
  %16 = fmul double %14, %15
  %17 = load double, ptr %7, align 8, !tbaa !48
  %18 = fneg double %16
  %19 = call double @llvm.fmuladd.f64(double %18, double %17, double 1.000000e+00)
  %20 = call double @sqrt(double noundef %19) #7, !tbaa !47
  %21 = fdiv double %13, %20
  store double %21, ptr %4, align 8
  br label %22

22:                                               ; preds = %12, %10
  %23 = load double, ptr %4, align 8
  ret double %23
}

; Function Attrs: mustprogress nounwind uwtable
define internal noundef double @_ZL17geocentric_radiusdddd(double noundef %0, double noundef %1, double noundef %2, double noundef %3) #1 {
  %5 = alloca double, align 8
  %6 = alloca double, align 8
  %7 = alloca double, align 8
  %8 = alloca double, align 8
  %9 = alloca double, align 8
  %10 = alloca double, align 8
  %11 = alloca double, align 8
  %12 = alloca double, align 8
  store double %0, ptr %5, align 8, !tbaa !48
  store double %1, ptr %6, align 8, !tbaa !48
  store double %2, ptr %7, align 8, !tbaa !48
  store double %3, ptr %8, align 8, !tbaa !48
  call void @llvm.lifetime.start.p0(i64 8, ptr %9) #7
  %13 = load double, ptr %7, align 8, !tbaa !48
  %14 = load double, ptr %7, align 8, !tbaa !48
  %15 = fmul double %13, %14
  store double %15, ptr %9, align 8, !tbaa !48
  call void @llvm.lifetime.start.p0(i64 8, ptr %10) #7
  %16 = load double, ptr %8, align 8, !tbaa !48
  %17 = load double, ptr %8, align 8, !tbaa !48
  %18 = fmul double %16, %17
  store double %18, ptr %10, align 8, !tbaa !48
  call void @llvm.lifetime.start.p0(i64 8, ptr %11) #7
  %19 = load double, ptr %6, align 8, !tbaa !48
  %20 = load double, ptr %6, align 8, !tbaa !48
  %21 = fmul double %19, %20
  store double %21, ptr %11, align 8, !tbaa !48
  call void @llvm.lifetime.start.p0(i64 8, ptr %12) #7
  %22 = load double, ptr %11, align 8, !tbaa !48
  %23 = load double, ptr %10, align 8, !tbaa !48
  %24 = fmul double %22, %23
  store double %24, ptr %12, align 8, !tbaa !48
  %25 = load double, ptr %5, align 8, !tbaa !48
  %26 = load double, ptr %9, align 8, !tbaa !48
  %27 = load double, ptr %11, align 8, !tbaa !48
  %28 = load double, ptr %12, align 8, !tbaa !48
  %29 = call double @llvm.fmuladd.f64(double %27, double %28, double %26)
  %30 = load double, ptr %9, align 8, !tbaa !48
  %31 = load double, ptr %12, align 8, !tbaa !48
  %32 = fadd double %30, %31
  %33 = fdiv double %29, %32
  %34 = call double @sqrt(double noundef %33) #7, !tbaa !47
  %35 = fmul double %25, %34
  call void @llvm.lifetime.end.p0(i64 8, ptr %12) #7
  call void @llvm.lifetime.end.p0(i64 8, ptr %11) #7
  call void @llvm.lifetime.end.p0(i64 8, ptr %10) #7
  call void @llvm.lifetime.end.p0(i64 8, ptr %9) #7
  ret double %35
}

; Function Attrs: mustprogress uwtable
define internal void @_ZL8geodetic6PJ_XYZP8PJconsts(ptr dead_on_unwind noalias writable sret(%struct.PJ_LPZ) align 8 %0, ptr noundef byval(%struct.PJ_XYZ) align 8 %1, ptr noundef %2) #0 {
  %4 = alloca ptr, align 8
  %5 = alloca double, align 8
  %6 = alloca double, align 8
  %7 = alloca double, align 8
  %8 = alloca double, align 8
  %9 = alloca double, align 8
  %10 = alloca double, align 8
  %11 = alloca double, align 8
  %12 = alloca double, align 8
  %13 = alloca double, align 8
  %14 = alloca double, align 8
  %15 = alloca double, align 8
  %16 = alloca double, align 8
  %17 = alloca double, align 8
  %18 = alloca double, align 8
  %19 = alloca double, align 8
  %20 = alloca double, align 8
  %21 = alloca double, align 8
  %22 = alloca double, align 8
  store ptr %2, ptr %4, align 8, !tbaa !3
  call void @llvm.lifetime.start.p0(i64 8, ptr %5) #7
  %23 = getelementptr inbounds nuw %struct.PJ_XYZ, ptr %1, i32 0, i32 0
  %24 = load double, ptr %23, align 8, !tbaa !53
  %25 = load ptr, ptr %4, align 8, !tbaa !3
  %26 = getelementptr inbounds nuw %struct.PJconsts, ptr %25, i32 0, i32 23
  %27 = load double, ptr %26, align 8, !tbaa !57
  %28 = fmul double %24, %27
  store double %28, ptr %5, align 8, !tbaa !48
  call void @llvm.lifetime.start.p0(i64 8, ptr %6) #7
  %29 = getelementptr inbounds nuw %struct.PJ_XYZ, ptr %1, i32 0, i32 1
  %30 = load double, ptr %29, align 8, !tbaa !55
  %31 = load ptr, ptr %4, align 8, !tbaa !3
  %32 = getelementptr inbounds nuw %struct.PJconsts, ptr %31, i32 0, i32 23
  %33 = load double, ptr %32, align 8, !tbaa !57
  %34 = fmul double %30, %33
  store double %34, ptr %6, align 8, !tbaa !48
  call void @llvm.lifetime.start.p0(i64 8, ptr %7) #7
  %35 = getelementptr inbounds nuw %struct.PJ_XYZ, ptr %1, i32 0, i32 2
  %36 = load double, ptr %35, align 8, !tbaa !56
  %37 = load ptr, ptr %4, align 8, !tbaa !3
  %38 = getelementptr inbounds nuw %struct.PJconsts, ptr %37, i32 0, i32 23
  %39 = load double, ptr %38, align 8, !tbaa !57
  %40 = fmul double %36, %39
  store double %40, ptr %7, align 8, !tbaa !48
  call void @llvm.lifetime.start.p0(i64 8, ptr %8) #7
  %41 = load double, ptr %5, align 8, !tbaa !48
  %42 = load double, ptr %5, align 8, !tbaa !48
  %43 = load double, ptr %6, align 8, !tbaa !48
  %44 = load double, ptr %6, align 8, !tbaa !48
  %45 = fmul double %43, %44
  %46 = call double @llvm.fmuladd.f64(double %41, double %42, double %45)
  %47 = call double @sqrt(double noundef %46) #7, !tbaa !47
  store double %47, ptr %8, align 8, !tbaa !48
  call void @llvm.lifetime.start.p0(i64 8, ptr %9) #7
  %48 = load ptr, ptr %4, align 8, !tbaa !3
  %49 = getelementptr inbounds nuw %struct.PJconsts, ptr %48, i32 0, i32 34
  %50 = load double, ptr %49, align 8, !tbaa !58
  %51 = fsub double 1.000000e+00, %50
  store double %51, ptr %9, align 8, !tbaa !48
  call void @llvm.lifetime.start.p0(i64 8, ptr %10) #7
  %52 = load double, ptr %8, align 8, !tbaa !48
  %53 = load double, ptr %9, align 8, !tbaa !48
  %54 = fmul double %52, %53
  store double %54, ptr %10, align 8, !tbaa !48
  call void @llvm.lifetime.start.p0(i64 8, ptr %11) #7
  %55 = load double, ptr %7, align 8, !tbaa !48
  %56 = load double, ptr %7, align 8, !tbaa !48
  %57 = load double, ptr %10, align 8, !tbaa !48
  %58 = load double, ptr %10, align 8, !tbaa !48
  %59 = fmul double %57, %58
  %60 = call double @llvm.fmuladd.f64(double %55, double %56, double %59)
  %61 = call double @sqrt(double noundef %60) #7, !tbaa !47
  store double %61, ptr %11, align 8, !tbaa !48
  call void @llvm.lifetime.start.p0(i64 8, ptr %12) #7
  call void @llvm.lifetime.start.p0(i64 8, ptr %13) #7
  %62 = load double, ptr %11, align 8, !tbaa !48
  %63 = fcmp une double %62, 0.000000e+00
  br i1 %63, label %64, label %73

64:                                               ; preds = %3
  call void @llvm.lifetime.start.p0(i64 8, ptr %14) #7
  %65 = load double, ptr %11, align 8, !tbaa !48
  %66 = fdiv double 1.000000e+00, %65
  store double %66, ptr %14, align 8, !tbaa !48
  %67 = load double, ptr %10, align 8, !tbaa !48
  %68 = load double, ptr %14, align 8, !tbaa !48
  %69 = fmul double %67, %68
  store double %69, ptr %12, align 8, !tbaa !48
  %70 = load double, ptr %7, align 8, !tbaa !48
  %71 = load double, ptr %14, align 8, !tbaa !48
  %72 = fmul double %70, %71
  store double %72, ptr %13, align 8, !tbaa !48
  call void @llvm.lifetime.end.p0(i64 8, ptr %14) #7
  br label %74

73:                                               ; preds = %3
  store double 1.000000e+00, ptr %12, align 8, !tbaa !48
  store double 0.000000e+00, ptr %13, align 8, !tbaa !48
  br label %74

74:                                               ; preds = %73, %64
  call void @llvm.lifetime.start.p0(i64 8, ptr %15) #7
  %75 = load double, ptr %7, align 8, !tbaa !48
  %76 = load ptr, ptr %4, align 8, !tbaa !3
  %77 = getelementptr inbounds nuw %struct.PJconsts, ptr %76, i32 0, i32 29
  %78 = load double, ptr %77, align 8, !tbaa !59
  %79 = load double, ptr %9, align 8, !tbaa !48
  %80 = fmul double %78, %79
  %81 = load double, ptr %13, align 8, !tbaa !48
  %82 = fmul double %80, %81
  %83 = load double, ptr %13, align 8, !tbaa !48
  %84 = fmul double %82, %83
  %85 = load double, ptr %13, align 8, !tbaa !48
  %86 = call double @llvm.fmuladd.f64(double %84, double %85, double %75)
  store double %86, ptr %15, align 8, !tbaa !48
  call void @llvm.lifetime.start.p0(i64 8, ptr %16) #7
  %87 = load double, ptr %8, align 8, !tbaa !48
  %88 = load ptr, ptr %4, align 8, !tbaa !3
  %89 = getelementptr inbounds nuw %struct.PJconsts, ptr %88, i32 0, i32 27
  %90 = load double, ptr %89, align 8, !tbaa !50
  %91 = load double, ptr %12, align 8, !tbaa !48
  %92 = fmul double %90, %91
  %93 = load double, ptr %12, align 8, !tbaa !48
  %94 = fmul double %92, %93
  %95 = load double, ptr %12, align 8, !tbaa !48
  %96 = fneg double %94
  %97 = call double @llvm.fmuladd.f64(double %96, double %95, double %87)
  store double %97, ptr %16, align 8, !tbaa !48
  call void @llvm.lifetime.start.p0(i64 8, ptr %17) #7
  %98 = load double, ptr %15, align 8, !tbaa !48
  %99 = load double, ptr %15, align 8, !tbaa !48
  %100 = load double, ptr %16, align 8, !tbaa !48
  %101 = load double, ptr %16, align 8, !tbaa !48
  %102 = fmul double %100, %101
  %103 = call double @llvm.fmuladd.f64(double %98, double %99, double %102)
  %104 = call double @sqrt(double noundef %103) #7, !tbaa !47
  store double %104, ptr %17, align 8, !tbaa !48
  call void @llvm.lifetime.start.p0(i64 8, ptr %18) #7
  call void @llvm.lifetime.start.p0(i64 8, ptr %19) #7
  %105 = load double, ptr %17, align 8, !tbaa !48
  %106 = fcmp une double %105, 0.000000e+00
  br i1 %106, label %107, label %116

107:                                              ; preds = %74
  call void @llvm.lifetime.start.p0(i64 8, ptr %20) #7
  %108 = load double, ptr %17, align 8, !tbaa !48
  %109 = fdiv double 1.000000e+00, %108
  store double %109, ptr %20, align 8, !tbaa !48
  %110 = load double, ptr %16, align 8, !tbaa !48
  %111 = load double, ptr %20, align 8, !tbaa !48
  %112 = fmul double %110, %111
  store double %112, ptr %18, align 8, !tbaa !48
  %113 = load double, ptr %15, align 8, !tbaa !48
  %114 = load double, ptr %20, align 8, !tbaa !48
  %115 = fmul double %113, %114
  store double %115, ptr %19, align 8, !tbaa !48
  call void @llvm.lifetime.end.p0(i64 8, ptr %20) #7
  br label %117

116:                                              ; preds = %74
  store double 1.000000e+00, ptr %18, align 8, !tbaa !48
  store double 0.000000e+00, ptr %19, align 8, !tbaa !48
  br label %117

117:                                              ; preds = %116, %107
  %118 = load double, ptr %16, align 8, !tbaa !48
  %119 = fcmp ole double %118, 0.000000e+00
  br i1 %119, label %120, label %131

120:                                              ; preds = %117
  %121 = getelementptr inbounds nuw %struct.PJ_XYZ, ptr %1, i32 0, i32 2
  %122 = load double, ptr %121, align 8, !tbaa !56
  %123 = fcmp oge double %122, 0.000000e+00
  %124 = select i1 %123, double 0x3FF921FB54442D18, double 0xBFF921FB54442D18
  %125 = getelementptr inbounds nuw %struct.PJ_LPZ, ptr %0, i32 0, i32 1
  store double %124, ptr %125, align 8, !tbaa !45
  store double 0.000000e+00, ptr %18, align 8, !tbaa !48
  %126 = getelementptr inbounds nuw %struct.PJ_XYZ, ptr %1, i32 0, i32 2
  %127 = load double, ptr %126, align 8, !tbaa !56
  %128 = fcmp oge double %127, 0.000000e+00
  %129 = select i1 %128, i32 1, i32 -1
  %130 = sitofp i32 %129 to double
  store double %130, ptr %19, align 8, !tbaa !48
  br label %137

131:                                              ; preds = %117
  %132 = load double, ptr %15, align 8, !tbaa !48
  %133 = load double, ptr %16, align 8, !tbaa !48
  %134 = fdiv double %132, %133
  %135 = call double @atan(double noundef %134) #7, !tbaa !47
  %136 = getelementptr inbounds nuw %struct.PJ_LPZ, ptr %0, i32 0, i32 1
  store double %135, ptr %136, align 8, !tbaa !45
  br label %137

137:                                              ; preds = %131, %120
  %138 = load double, ptr %6, align 8, !tbaa !48
  %139 = load double, ptr %5, align 8, !tbaa !48
  %140 = call double @atan2(double noundef %138, double noundef %139) #7, !tbaa !47
  %141 = getelementptr inbounds nuw %struct.PJ_LPZ, ptr %0, i32 0, i32 0
  store double %140, ptr %141, align 8, !tbaa !52
  %142 = load double, ptr %18, align 8, !tbaa !48
  %143 = fcmp olt double %142, 0x3EB0C6F7A0B5ED8D
  br i1 %143, label %144, label %158

144:                                              ; preds = %137
  call void @llvm.lifetime.start.p0(i64 8, ptr %21) #7
  %145 = load ptr, ptr %4, align 8, !tbaa !3
  %146 = getelementptr inbounds nuw %struct.PJconsts, ptr %145, i32 0, i32 21
  %147 = load double, ptr %146, align 8, !tbaa !49
  %148 = load double, ptr %9, align 8, !tbaa !48
  %149 = load double, ptr %18, align 8, !tbaa !48
  %150 = load double, ptr %19, align 8, !tbaa !48
  %151 = call noundef double @_ZL17geocentric_radiusdddd(double noundef %147, double noundef %148, double noundef %149, double noundef %150)
  store double %151, ptr %21, align 8, !tbaa !48
  %152 = getelementptr inbounds nuw %struct.PJ_XYZ, ptr %1, i32 0, i32 2
  %153 = load double, ptr %152, align 8, !tbaa !56
  %154 = call double @llvm.fabs.f64(double %153)
  %155 = load double, ptr %21, align 8, !tbaa !48
  %156 = fsub double %154, %155
  %157 = getelementptr inbounds nuw %struct.PJ_LPZ, ptr %0, i32 0, i32 2
  store double %156, ptr %157, align 8, !tbaa !51
  call void @llvm.lifetime.end.p0(i64 8, ptr %21) #7
  br label %177

158:                                              ; preds = %137
  call void @llvm.lifetime.start.p0(i64 8, ptr %22) #7
  %159 = load ptr, ptr %4, align 8, !tbaa !3
  %160 = getelementptr inbounds nuw %struct.PJconsts, ptr %159, i32 0, i32 21
  %161 = load double, ptr %160, align 8, !tbaa !49
  %162 = load ptr, ptr %4, align 8, !tbaa !3
  %163 = getelementptr inbounds nuw %struct.PJconsts, ptr %162, i32 0, i32 27
  %164 = load double, ptr %163, align 8, !tbaa !50
  %165 = load double, ptr %19, align 8, !tbaa !48
  %166 = call noundef double @_ZL26normal_radius_of_curvatureddd(double noundef %161, double noundef %164, double noundef %165)
  store double %166, ptr %22, align 8, !tbaa !48
  %167 = load ptr, ptr %4, align 8, !tbaa !3
  %168 = getelementptr inbounds nuw %struct.PJconsts, ptr %167, i32 0, i32 21
  %169 = load double, ptr %168, align 8, !tbaa !49
  %170 = load double, ptr %8, align 8, !tbaa !48
  %171 = fmul double %169, %170
  %172 = load double, ptr %18, align 8, !tbaa !48
  %173 = fdiv double %171, %172
  %174 = load double, ptr %22, align 8, !tbaa !48
  %175 = fsub double %173, %174
  %176 = getelementptr inbounds nuw %struct.PJ_LPZ, ptr %0, i32 0, i32 2
  store double %175, ptr %176, align 8, !tbaa !51
  call void @llvm.lifetime.end.p0(i64 8, ptr %22) #7
  br label %177

177:                                              ; preds = %158, %144
  call void @llvm.lifetime.end.p0(i64 8, ptr %19) #7
  call void @llvm.lifetime.end.p0(i64 8, ptr %18) #7
  call void @llvm.lifetime.end.p0(i64 8, ptr %17) #7
  call void @llvm.lifetime.end.p0(i64 8, ptr %16) #7
  call void @llvm.lifetime.end.p0(i64 8, ptr %15) #7
  call void @llvm.lifetime.end.p0(i64 8, ptr %13) #7
  call void @llvm.lifetime.end.p0(i64 8, ptr %12) #7
  call void @llvm.lifetime.end.p0(i64 8, ptr %11) #7
  call void @llvm.lifetime.end.p0(i64 8, ptr %10) #7
  call void @llvm.lifetime.end.p0(i64 8, ptr %9) #7
  call void @llvm.lifetime.end.p0(i64 8, ptr %8) #7
  call void @llvm.lifetime.end.p0(i64 8, ptr %7) #7
  call void @llvm.lifetime.end.p0(i64 8, ptr %6) #7
  call void @llvm.lifetime.end.p0(i64 8, ptr %5) #7
  ret void
}