; Function Attrs: mustprogress nofree nounwind willreturn memory(write, argmem: readwrite) uwtable
define internal void @_ZL8geodetic6PJ_XYZP8PJconsts(ptr dead_on_unwind noalias writable writeonly sret(%struct.PJ_LPZ) align 8 captures(none) initializes((0, 24)) %0, ptr noundef readonly byval(%struct.PJ_XYZ) align 8 captures(none) %1, ptr noundef readonly captures(none) %2) #3 {
  %4 = load double, ptr %1, align 8, !tbaa !51
  %5 = getelementptr inbounds nuw i8, ptr %2, i64 184
  %6 = load double, ptr %5, align 8, !tbaa !55
  %7 = fmul double %4, %6
  %8 = getelementptr inbounds nuw i8, ptr %1, i64 8
  %9 = load double, ptr %8, align 8, !tbaa !53
  %10 = fmul double %6, %9
  %11 = getelementptr inbounds nuw i8, ptr %1, i64 16
  %12 = load double, ptr %11, align 8, !tbaa !54
  %13 = fmul double %6, %12
  %14 = fmul double %10, %10
  %15 = tail call double @llvm.fmuladd.f64(double %7, double %7, double %14)
  %sqrt71 = tail call double @llvm.sqrt.f64(double %15)
  %16 = getelementptr inbounds nuw i8, ptr %2, i64 272
  %17 = load double, ptr %16, align 8, !tbaa !56
  %18 = fsub double 1.000000e+00, %17
  %19 = fmul double %18, %sqrt71
  %20 = fmul double %19, %19
  %21 = tail call double @llvm.fmuladd.f64(double %13, double %13, double %20)
  %sqrt70 = tail call double @llvm.sqrt.f64(double %21)
  %22 = fcmp une double %21, 0.000000e+00
  %23 = fdiv double 1.000000e+00, %sqrt70
  %24 = fmul double %19, %23
  %25 = fmul double %13, %23
  %.059 = select i1 %22, double %25, double 0.000000e+00
  %.0 = select i1 %22, double %24, double 1.000000e+00
  %26 = getelementptr inbounds nuw i8, ptr %2, i64 232
  %27 = load double, ptr %26, align 8, !tbaa !57
  %28 = fmul double %27, %18
  %29 = fmul double %28, %.059
  %30 = fmul double %.059, %29
  %31 = tail call double @llvm.fmuladd.f64(double %30, double %.059, double %13)
  %32 = getelementptr inbounds nuw i8, ptr %2, i64 216
  %33 = load double, ptr %32, align 8, !tbaa !48
  %34 = fmul double %33, %.0
  %35 = fneg double %.0
  %36 = fmul double %34, %35
  %37 = tail call double @llvm.fmuladd.f64(double %36, double %.0, double %sqrt71)
  %38 = fmul double %37, %37
  %39 = tail call double @llvm.fmuladd.f64(double %31, double %31, double %38)
  %sqrt = tail call double @llvm.sqrt.f64(double %39)
  %40 = fcmp une double %39, 0.000000e+00
  %41 = fdiv double 1.000000e+00, %sqrt
  %42 = fmul double %37, %41
  %43 = fmul double %31, %41
  %.061 = select i1 %40, double %43, double 0.000000e+00
  %.060 = select i1 %40, double %42, double 1.000000e+00
  %44 = fcmp ugt double %37, 0.000000e+00
  %45 = getelementptr inbounds nuw i8, ptr %0, i64 8
  br i1 %44, label %50, label %.thread

.thread:                                          ; preds = %3
  %46 = fcmp oge double %12, 0.000000e+00
  %47 = select i1 %46, double 0x3FF921FB54442D18, double 0xBFF921FB54442D18
  store double %47, ptr %45, align 8, !tbaa !44
  %48 = select i1 %46, double 1.000000e+00, double -1.000000e+00
  %49 = tail call double @atan2(double noundef %10, double noundef %7) #8, !tbaa !46
  store double %49, ptr %0, align 8, !tbaa !50
  br label %55

50:                                               ; preds = %3
  %51 = fdiv double %31, %37
  %52 = tail call double @atan(double noundef %51) #8, !tbaa !46
  store double %52, ptr %45, align 8, !tbaa !44
  %53 = tail call double @atan2(double noundef %10, double noundef %7) #8, !tbaa !46
  store double %53, ptr %0, align 8, !tbaa !50
  %54 = fcmp olt double %.060, 0x3EB0C6F7A0B5ED8D
  br i1 %54, label %55, label %69

55:                                               ; preds = %.thread, %50
  %.169 = phi double [ 0.000000e+00, %.thread ], [ %.060, %50 ]
  %.16268 = phi double [ %48, %.thread ], [ %.061, %50 ]
  %56 = getelementptr inbounds nuw i8, ptr %2, i64 168
  %57 = load double, ptr %56, align 8, !tbaa !47
  %58 = fmul double %.169, %.169
  %59 = fmul double %.16268, %.16268
  %60 = fmul double %18, %18
  %61 = fmul double %60, %59
  %62 = tail call double @llvm.fmuladd.f64(double %60, double %61, double %58)
  %63 = fadd double %58, %61
  %64 = fdiv double %62, %63
  %65 = tail call double @sqrt(double noundef %64) #8, !tbaa !46
  %66 = fmul double %57, %65
  %67 = tail call double @llvm.fabs.f64(double %12)
  %68 = fsub double %67, %66
  br label %82

69:                                               ; preds = %50
  %70 = getelementptr inbounds nuw i8, ptr %2, i64 168
  %71 = load double, ptr %70, align 8, !tbaa !47
  %72 = fcmp oeq double %33, 0.000000e+00
  br i1 %72, label %_ZL26normal_radius_of_curvatureddd.exit, label %73

73:                                               ; preds = %69
  %74 = fneg double %.061
  %75 = fmul double %33, %74
  %76 = tail call double @llvm.fmuladd.f64(double %75, double %.061, double 1.000000e+00)
  %77 = tail call double @sqrt(double noundef %76) #8, !tbaa !46
  %78 = fdiv double %71, %77
  br label %_ZL26normal_radius_of_curvatureddd.exit

_ZL26normal_radius_of_curvatureddd.exit:          ; preds = %69, %73
  %.0.i = phi double [ %78, %73 ], [ %71, %69 ]
  %79 = fmul double %sqrt71, %71
  %80 = fdiv double %79, %.060
  %81 = fsub double %80, %.0.i
  br label %82

82:                                               ; preds = %_ZL26normal_radius_of_curvatureddd.exit, %55
  %.sink = phi double [ %81, %_ZL26normal_radius_of_curvatureddd.exit ], [ %68, %55 ]
  %83 = getelementptr inbounds nuw i8, ptr %0, i64 16
  store double %.sink, ptr %83, align 8, !tbaa !49
  ret void
}